; Function Attrs: nounwind sspstrong uwtable
define internal fastcc void @unregister_sym(i64 noundef %0, i64 noundef %1) unnamed_addr #0 {
  %3 = alloca i64, align 8
  call void @llvm.lifetime.start.p0(i64 8, ptr nonnull %3) #19
  store i64 %0, ptr %3, align 8, !tbaa !32
  %4 = load ptr, ptr getelementptr inbounds nuw (i8, ptr @ruby_global_symbols, i64 8), align 8, !tbaa !15
  %5 = call i32 @rb_st_delete(ptr noundef %4, ptr noundef nonnull %3, ptr noundef null) #19
  %.not = icmp eq i32 %5, 0
  br i1 %.not, label %6, label %13

6:                                                ; preds = %2
  %7 = inttoptr i64 %0 to ptr
  %8 = load i64, ptr %7, align 8, !tbaa !26, !noalias !56
  %9 = and i64 %8, 8192
  %.not.i.i = icmp eq i64 %9, 0
  %10 = getelementptr inbounds nuw i8, ptr %7, i64 24
  br i1 %.not.i.i, label %RSTRING_PTR.exit, label %11

11:                                               ; preds = %6
  %.sroa.2.0.copyload.i = load ptr, ptr %10, align 8
  br label %RSTRING_PTR.exit

RSTRING_PTR.exit:                                 ; preds = %6, %11
  %.sroa.2.0.i = phi ptr [ %.sroa.2.0.copyload.i, %11 ], [ %10, %6 ]
  %12 = inttoptr i64 %1 to ptr
  call void (ptr, ...) @rb_bug(ptr noundef nonnull @.str.109, ptr noundef %12, ptr noundef %.sroa.2.0.i) #22
  unreachable

13:                                               ; preds = %2
  call void @llvm.lifetime.end.p0(i64 8, ptr nonnull %3) #19
  ret void
}